target datalayout = "e-m:e-p270:32:32-p271:32:32-p272:64:64-i64:64-i128:128-f80:128-n8:16:32:64-S128"
target triple = "x86_64-pc-linux-gnu"

%struct._zend_phpdbg_globals = type { [11 x %struct._zend_array], %struct._zend_array, %struct._zend_array, ptr, ptr, %struct.phpdbg_frame_t, i32, ptr, %struct.phpdbg_lexer_data, ptr, %struct.sigaction, i32, i64, %struct.phpdbg_btree, %struct.phpdbg_btree, %struct._zend_array, %struct._zend_array, %struct._zend_array, %struct._zend_array, ptr, ptr, i8, ptr, ptr, ptr, i64, ptr, %struct._zval_struct, i32, i32, i8, i8, ptr, ptr, ptr, %struct._zend_array, ptr, ptr, ptr, [3 x %struct.anon.8], ptr, %struct.anon.9, i64, [2 x ptr], [3 x ptr], ptr, i8, ptr, ptr, [500 x i8], i32, %struct.phpdbg_signal_safe_mem, ptr, i64, ptr, i64 }
%struct.phpdbg_frame_t = type { i32, ptr, ptr }
%struct.phpdbg_lexer_data = type { i32, ptr, ptr, ptr, ptr, i32 }
%struct.sigaction = type { %union.anon.2, %struct.__sigset_t, i32, ptr }
%union.anon.2 = type { ptr }
%struct.__sigset_t = type { [16 x i64] }
%struct.phpdbg_btree = type { i64, i64, i8, ptr }
%struct._zval_struct = type { %union._zend_value, %union.anon.4, %union.anon.7 }
%union._zend_value = type { i64 }
%union.anon.4 = type { i32 }
%union.anon.7 = type { i32 }
%struct._zend_array = type { %struct._zend_refcounted_h, %union.anon.0, i32, %union.anon.1, i32, i32, i32, i32, i64, ptr }
%struct._zend_refcounted_h = type { i32, %union.anon }
%union.anon = type { i32 }
%union.anon.0 = type { i32 }
%union.anon.1 = type { ptr }
%struct.anon.8 = type { i32 }
%struct.anon.9 = type { i8, i32, i32, ptr, i32 }
%struct.phpdbg_signal_safe_mem = type { ptr, i8, ptr, ptr }
%struct._phpdbg_breakbase_t = type { i32, i8, i64, i8, ptr }
%struct._Bucket = type { %struct._zval_struct, i64, ptr }

@phpdbg_globals = external global %struct._zend_phpdbg_globals, align 8

; Function Attrs: nounwind uwtable
define ptr @phpdbg_find_breakbase_ex(i64 noundef %0, ptr noundef %1, ptr noundef %2, ptr noundef %3) #0 {
  %5 = alloca ptr, align 8
  %6 = alloca ptr, align 8
  %7 = alloca i64, align 8
  %8 = alloca ptr, align 8
  %9 = alloca ptr, align 8
  %10 = alloca ptr, align 8
  %11 = alloca i64, align 8
  %12 = alloca ptr, align 8
  %13 = alloca ptr, align 8
  %14 = alloca ptr, align 8
  %15 = alloca ptr, align 8
  %16 = alloca ptr, align 8
  %17 = alloca i64, align 8
  %18 = alloca ptr, align 8
  %19 = alloca i32, align 4
  %20 = alloca i64, align 8
  %21 = alloca ptr, align 8
  %22 = alloca i32, align 4
  %23 = alloca ptr, align 8
  %24 = alloca ptr, align 8
  store i64 %0, ptr %11, align 8
  store ptr %1, ptr %12, align 8
  store ptr %2, ptr %13, align 8
  store ptr %3, ptr %14, align 8
  %25 = load i64, ptr %11, align 8
  store ptr getelementptr inbounds ([11 x %struct._zend_array], ptr @phpdbg_globals, i64 0, i64 10), ptr %6, align 8
  store i64 %25, ptr %7, align 8
  %26 = load ptr, ptr %6, align 8
  %27 = load i64, ptr %7, align 8
  %28 = call ptr @zend_hash_index_find(ptr noundef %26, i64 noundef %27) #11
  store ptr %28, ptr %8, align 8
  %29 = load ptr, ptr %8, align 8
  %30 = icmp ne ptr %29, null
  br i1 %30, label %31, label %37

31:                                               ; preds = %4
  %32 = load ptr, ptr %8, align 8
  %33 = load ptr, ptr %32, align 8
  %34 = icmp ne ptr %33, null
  call void @llvm.assume(i1 %34)
  %35 = load ptr, ptr %8, align 8
  %36 = load ptr, ptr %35, align 8
  store ptr %36, ptr %5, align 8
  br label %38

37:                                               ; preds = %4
  store ptr null, ptr %5, align 8
  br label %38

38:                                               ; preds = %37, %31
  %39 = load ptr, ptr %5, align 8
  %40 = load ptr, ptr %12, align 8
  store ptr %39, ptr %40, align 8
  %41 = icmp ne ptr %39, null
  br i1 %41, label %42, label %130

42:                                               ; preds = %38
  br label %43

43:                                               ; preds = %42
  %44 = load ptr, ptr %12, align 8
  %45 = load ptr, ptr %44, align 8
  store ptr %45, ptr %16, align 8
  store ptr null, ptr %18, align 8
  store i32 0, ptr %19, align 4
  %46 = load ptr, ptr %16, align 8
  %47 = getelementptr inbounds %struct._zend_array, ptr %46, i32 0, i32 1
  %48 = load i32, ptr %47, align 8
  %49 = xor i32 %48, -1
  %50 = and i32 %49, 4
  %51 = zext i32 %50 to i64
  %52 = mul i64 %51, 4
  %53 = add i64 16, %52
  store i64 %53, ptr %20, align 8
  %54 = load ptr, ptr %16, align 8
  %55 = getelementptr inbounds %struct._zend_array, ptr %54, i32 0, i32 3
  %56 = load ptr, ptr %55, align 8
  %57 = load i32, ptr %19, align 4
  %58 = zext i32 %57 to i64
  %59 = load i64, ptr %20, align 8
  %60 = mul i64 %58, %59
  %61 = getelementptr inbounds i8, ptr %56, i64 %60
  store ptr %61, ptr %21, align 8
  %62 = load ptr, ptr %16, align 8
  %63 = getelementptr inbounds %struct._zend_array, ptr %62, i32 0, i32 4
  %64 = load i32, ptr %63, align 8
  %65 = load i32, ptr %19, align 4
  %66 = sub i32 %64, %65
  store i32 %66, ptr %22, align 4
  br label %67

67:                                               ; preds = %125, %43
  %68 = load i32, ptr %22, align 4
  %69 = icmp ugt i32 %68, 0
  br i1 %69, label %70, label %128

70:                                               ; preds = %67
  %71 = load ptr, ptr %21, align 8
  store ptr %71, ptr %23, align 8
  %72 = load ptr, ptr %16, align 8
  %73 = getelementptr inbounds %struct._zend_array, ptr %72, i32 0, i32 1
  %74 = load i32, ptr %73, align 8
  %75 = and i32 %74, 4
  %76 = icmp ne i32 %75, 0
  br i1 %76, label %77, label %84

77:                                               ; preds = %70
  %78 = load ptr, ptr %21, align 8
  %79 = getelementptr inbounds %struct._zval_struct, ptr %78, i32 1
  store ptr %79, ptr %21, align 8
  %80 = load i32, ptr %19, align 4
  %81 = zext i32 %80 to i64
  store i64 %81, ptr %17, align 8
  %82 = load i32, ptr %19, align 4
  %83 = add i32 %82, 1
  store i32 %83, ptr %19, align 4
  br label %95

84:                                               ; preds = %70
  %85 = load ptr, ptr %21, align 8
  store ptr %85, ptr %24, align 8
  %86 = load ptr, ptr %24, align 8
  %87 = getelementptr inbounds %struct._Bucket, ptr %86, i64 1
  %88 = getelementptr inbounds %struct._Bucket, ptr %87, i32 0, i32 0
  store ptr %88, ptr %21, align 8
  %89 = load ptr, ptr %24, align 8
  %90 = getelementptr inbounds %struct._Bucket, ptr %89, i32 0, i32 1
  %91 = load i64, ptr %90, align 8
  store i64 %91, ptr %17, align 8
  %92 = load ptr, ptr %24, align 8
  %93 = getelementptr inbounds %struct._Bucket, ptr %92, i32 0, i32 2
  %94 = load ptr, ptr %93, align 8
  store ptr %94, ptr %18, align 8
  br label %95

95:                                               ; preds = %84, %77
  %96 = load ptr, ptr %23, align 8
  store ptr %96, ptr %9, align 8
  %97 = load ptr, ptr %9, align 8
  %98 = getelementptr inbounds %struct._zval_struct, ptr %97, i32 0, i32 1
  %99 = load i8, ptr %98, align 8
  %100 = zext i8 %99 to i32
  %101 = icmp eq i32 %100, 0
  %102 = xor i1 %101, true
  %103 = xor i1 %102, true
  %104 = zext i1 %103 to i32
  %105 = sext i32 %104 to i64
  %106 = icmp ne i64 %105, 0
  br i1 %106, label %107, label %108

107:                                              ; preds = %95
  br label %125

108:                                              ; preds = %95
  %109 = load i64, ptr %17, align 8
  %110 = load ptr, ptr %13, align 8
  store i64 %109, ptr %110, align 8
  %111 = load ptr, ptr %18, align 8
  %112 = load ptr, ptr %14, align 8
  store ptr %111, ptr %112, align 8
  %113 = load ptr, ptr %23, align 8
  %114 = getelementptr inbounds %struct._zval_struct, ptr %113, i32 0, i32 0
  %115 = load ptr, ptr %114, align 8
  store ptr %115, ptr %15, align 8
  %116 = load ptr, ptr %15, align 8
  %117 = getelementptr inbounds %struct._phpdbg_breakbase_t, ptr %116, i32 0, i32 0
  %118 = load i32, ptr %117, align 8
  %119 = sext i32 %118 to i64
  %120 = load i64, ptr %11, align 8
  %121 = icmp eq i64 %119, %120
  br i1 %121, label %122, label %124

122:                                              ; preds = %108
  %123 = load ptr, ptr %15, align 8
  store ptr %123, ptr %10, align 8
  br label %131

124:                                              ; preds = %108
  br label %125

125:                                              ; preds = %124, %107
  %126 = load i32, ptr %22, align 4
  %127 = add i32 %126, -1
  store i32 %127, ptr %22, align 4
  br label %67

128:                                              ; preds = %67
  br label %129

129:                                              ; preds = %128
  br label %130

130:                                              ; preds = %129, %38
  store ptr null, ptr %10, align 8
  br label %131

131:                                              ; preds = %130, %122
  %132 = load ptr, ptr %10, align 8
  ret ptr %132
}

; Function Attrs: nounwind uwtable
define ptr @phpdbg_find_breakbase(i64 noundef %0) #0 {
  %2 = alloca i64, align 8
  %3 = alloca ptr, align 8
  %4 = alloca ptr, align 8
  %5 = alloca i64, align 8
  store i64 %0, ptr %2, align 8
  %6 = load i64, ptr %2, align 8
  %7 = call ptr @phpdbg_find_breakbase_ex(i64 noundef %6, ptr noundef %3, ptr noundef %5, ptr noundef %4)
  ret ptr %7
}