; Function Attrs: nounwind uwtable
define noundef ptr @phpdbg_find_breakbase(i64 noundef %0) local_unnamed_addr #1 {
  %2 = tail call ptr @zend_hash_index_find(ptr noundef nonnull getelementptr inbounds (%struct._zend_phpdbg_globals, ptr @phpdbg_globals, i64 0, i32 0, i64 10), i64 noundef %0) #14
  %.not.i = icmp eq ptr %2, null
  br i1 %.not.i, label %phpdbg_find_breakbase_ex.exit, label %3

3:                                                ; preds = %1
  %4 = load ptr, ptr %2, align 8, !nonnull !4, !noundef !4
  %5 = getelementptr inbounds i8, ptr %4, i64 24
  %6 = load i32, ptr %5, align 8
  %.not4650.i = icmp eq i32 %6, 0
  br i1 %.not4650.i, label %phpdbg_find_breakbase_ex.exit, label %.lr.ph.preheader.i

.lr.ph.preheader.i:                               ; preds = %3
  %7 = getelementptr inbounds i8, ptr %4, i64 8
  %8 = getelementptr inbounds i8, ptr %4, i64 16
  %9 = load ptr, ptr %8, align 8
  %10 = load i32, ptr %7, align 8
  %.fr1 = freeze i32 %10
  %11 = and i32 %.fr1, 4
  %.not47.i = icmp eq i32 %11, 0
  br i1 %.not47.i, label %.lr.ph.i.us, label %.lr.ph.i

.lr.ph.i.us:                                      ; preds = %.lr.ph.preheader.i, %21
  %.03754.i.us = phi i32 [ %22, %21 ], [ %6, %.lr.ph.preheader.i ]
  %.03853.i.us = phi ptr [ %12, %21 ], [ %9, %.lr.ph.preheader.i ]
  %12 = getelementptr inbounds i8, ptr %.03853.i.us, i64 32
  %13 = getelementptr inbounds i8, ptr %.03853.i.us, i64 8
  %14 = load i8, ptr %13, align 8
  %15 = icmp eq i8 %14, 0
  br i1 %15, label %21, label %16

16:                                               ; preds = %.lr.ph.i.us
  %17 = load ptr, ptr %.03853.i.us, align 8
  %18 = load i32, ptr %17, align 8
  %19 = sext i32 %18 to i64
  %20 = icmp eq i64 %19, %0
  br i1 %20, label %phpdbg_find_breakbase_ex.exit, label %21

21:                                               ; preds = %.lr.ph.i.us, %16
  %22 = add i32 %.03754.i.us, -1
  %.not46.i.us = icmp eq i32 %22, 0
  br i1 %.not46.i.us, label %phpdbg_find_breakbase_ex.exit, label %.lr.ph.i.us

.lr.ph.i:                                         ; preds = %.lr.ph.preheader.i, %32
  %.03754.i = phi i32 [ %33, %32 ], [ %6, %.lr.ph.preheader.i ]
  %.03853.i = phi ptr [ %23, %32 ], [ %9, %.lr.ph.preheader.i ]
  %23 = getelementptr inbounds i8, ptr %.03853.i, i64 16
  %24 = getelementptr inbounds i8, ptr %.03853.i, i64 8
  %25 = load i8, ptr %24, align 8
  %26 = icmp eq i8 %25, 0
  br i1 %26, label %32, label %27

27:                                               ; preds = %.lr.ph.i
  %28 = load ptr, ptr %.03853.i, align 8
  %29 = load i32, ptr %28, align 8
  %30 = sext i32 %29 to i64
  %31 = icmp eq i64 %30, %0
  br i1 %31, label %phpdbg_find_breakbase_ex.exit, label %32

32:                                               ; preds = %27, %.lr.ph.i
  %33 = add i32 %.03754.i, -1
  %.not46.i = icmp eq i32 %33, 0
  br i1 %.not46.i, label %phpdbg_find_breakbase_ex.exit, label %.lr.ph.i

phpdbg_find_breakbase_ex.exit:                    ; preds = %32, %27, %21, %16, %1, %3
  %.036.i = phi ptr [ null, %3 ], [ null, %1 ], [ null, %21 ], [ %17, %16 ], [ null, %32 ], [ %28, %27 ]
  ret ptr %.036.i
}